(dp0
S'005_S_4707'
p1
I1
sS'036_S_5248'
p2
I0
sS'068_S_0109'
p3
I1
sS'018_S_0633'
p4
I1
sS'082_S_5279'
p5
I0
sS'082_S_5278'
p6
I0
sS'062_S_0578'
p7
I0
sS'126_S_4686'
p8
I1
sS'100_S_1286'
p9
I0
sS'941_S_5193'
p10
I0
sS'009_S_1354'
p11
I1
sS'016_S_0538'
p12
I0
sS'007_S_1339'
p13
I1
sS'009_S_0751'
p14
I0
sS'014_S_6076'
p15
I0
sS'070_S_4719'
p16
I1
sS'094_S_4737'
p17
I1
sS'018_S_0335'
p18
I1
sS'036_S_4820'
p19
I1
sS'082_S_1079'
p20
I1
sS'133_S_1055'
p21
I1
sS'023_S_1289'
p22
I1
sS'032_S_4386'
p23
I0
sS'123_S_0298'
p24
I0
sS'007_S_0068'
p25
I0
sS'128_S_4586'
p26
I0
sS'021_S_0642'
p27
I1
sS'027_S_0850'
p28
I1
sS'021_S_0647'
p29
I0
sS'099_S_6038'
p30
I0
sS'041_S_5244'
p31
I0
sS'011_S_4827'
p32
I1
sS'131_S_0436'
p33
I0
sS'012_S_0637'
p34
I0
sS'021_S_5237'
p35
I0
sS'099_S_4104'
p36
I0
sS'130_S_5006'
p37
I1
sS'941_S_4292'
p38
I0
sS'041_S_5100'
p39
I0
sS'032_S_0479'
p40
I0
sS'082_S_1256'
p41
I0
sS'022_S_0066'
p42
I0
sS'036_S_0813'
p43
I0
sS'036_S_0576'
p44
I0
sS'036_S_0577'
p45
I1
sS'130_S_1290'
p46
I1
sS'011_S_0016'
p47
I0
sS'135_S_5275'
p48
I1
sS'011_S_4222'
p49
I0
sS'011_S_0010'
p50
I1
sS'057_S_0474'
p51
I1
sS'013_S_0996'
p52
I1
sS'100_S_5075'
p53
I0
sS'021_S_5194'
p54
I0
sS'067_S_4728'
p55
I1
sS'098_S_4003'
p56
I0
sS'941_S_4066'
p57
I0
sS'082_S_0304'
p58
I0
sS'128_S_0266'
p59
I1
sS'041_S_0125'
p60
I0
sS'021_S_0337'
p61
I0
sS'021_S_0332'
p62
I1
sS'023_S_0084'
p63
I1
sS'099_S_0040'
p64
I0
sS'126_S_0891'
p65
I1
sS'023_S_0081'
p66
I0
sS'067_S_0110'
p67
I1
sS'023_S_0083'
p68
I1
sS'032_S_0400'
p69
I1
sS'041_S_1435'
p70
I1
sS'116_S_0392'
p71
I1
sS'011_S_4912'
p72
I1
sS'098_S_0172'
p73
I0
sS'009_S_5147'
p74
I0
sS'127_S_4500'
p75
I1
sS'127_S_5058'
p76
I1
sS'128_S_0740'
p77
I1
sS'027_S_0404'
p78
I1
sS'002_S_6103'
p79
I0
sS'127_S_0754'
p80
I1
sS'100_S_5106'
p81
I1
sS'009_S_5027'
p82
I1
sS'027_S_0403'
p83
I0
sS'041_S_5204'
p84
I0
sS'067_S_0257'
p85
I0
sS'014_S_4039'
p86
I1
sS'003_S_0931'
p87
I0
sS'098_S_4018'
p88
I0
sS'094_S_1397'
p89
I1
sS'005_S_5119'
p90
I1
sS'023_S_1306'
p91
I0
sS'153_S_4372'
p92
I0
sS'116_S_4010'
p93
I0
sS'014_S_4615'
p94
I1
sS'141_S_1137'
p95
I1
sS'067_S_0029'
p96
I1
sS'116_S_0487'
p97
I1
sS'116_S_4453'
p98
I0
sS'130_S_4982'
p99
I1
sS'067_S_5212'
p100
I0
sS'094_S_1090'
p101
I1
sS'141_S_0853'
p102
I1
sS'130_S_4984'
p103
I1
sS'114_S_0416'
p104
I0
sS'009_S_0862'
p105
I0
sS'022_S_4196'
p106
I0
sS'127_S_5228'
p107
I0
sS'099_S_4076'
p108
I0
sS'036_S_5112'
p109
I1
sS'035_S_0048'
p110
I0
sS'006_S_0653'
p111
I1
sS'128_S_0272'
p112
I0
sS'022_S_6069'
p113
I0
sS'109_S_1014'
p114
I0
sS'109_S_1013'
p115
I0
sS'099_S_0533'
p116
I0
sS'024_S_5290'
p117
I0
sS'035_S_4783'
p118
I1
sS'035_S_4785'
p119
I0
sS'022_S_4291'
p120
I0
sS'002_S_0816'
p121
I1
sS'037_S_5126'
p122
I0
sS'013_S_5171'
p123
I0
sS'137_S_0301'
p124
I0
sS'127_S_4940'
p125
I1
sS'036_S_5271'
p126
I0
sS'032_S_4348'
p127
I0
sS'135_S_5113'
p128
I0
sS'012_S_5213'
p129
I0
sS'019_S_4477'
p130
I1
sS'127_S_4604'
p131
I0
sS'116_S_4209'
p132
I1
sS'082_S_5282'
p133
I0
sS'006_S_4153'
p134
I1
sS'006_S_4150'
p135
I0
sS'053_S_4578'
p136
I0
sS'057_S_5295'
p137
I0
sS'057_S_5292'
p138
I0
sS'137_S_4756'
p139
I1
sS'057_S_0934'
p140
I0
sS'126_S_4494'
p141
I1
sS'036_S_4878'
p142
I0
sS'016_S_4952'
p143
I0
sS'016_S_4951'
p144
I0
sS'036_S_1001'
p145
I1
sS'130_S_6019'
p146
I0
sS'126_S_1221'
p147
I1
sS'003_S_4136'
p148
I1
sS'126_S_5243'
p149
I0
sS'072_S_4391'
p150
I0
sS'027_S_5118'
p151
I0
sS'137_S_4672'
p152
I1
sS'123_S_0094'
p153
I1
sS'027_S_1082'
p154
I1
sS'027_S_1081'
p155
I1
sS'033_S_4176'
p156
I0
sS'033_S_4179'
p157
I0
sS'027_S_5110'
p158
I0
sS'114_S_0601'
p159
I0
sS'141_S_0790'
p160
I1
sS'033_S_1308'
p161
I1
sS'021_S_0753'
p162
I1
sS'041_S_1368'
p163
I1
sS'018_S_5240'
p164
I1
sS'128_S_1409'
p165
I1
sS'033_S_5198'
p166
I0
sS'002_S_0955'
p167
I1
sS'013_S_5071'
p168
I1
sS'029_S_0824'
p169
I0
sS'037_S_5162'
p170
I1
sS'129_S_4422'
p171
I0
sS'068_S_5206'
p172
I1
sS'013_S_1205'
p173
I1
sS'123_S_0072'
p174
I0
sS'100_S_5091'
p175
I0
sS'131_S_0441'
p176
I0
sS'031_S_4032'
p177
I0
sS'016_S_4009'
p178
I1
sS'033_S_5259'
p179
I0
sS'130_S_5231'
p180
I1
sS'029_S_4585'
p181
I0
sS'036_S_4491'
p182
I0
sS'130_S_0886'
p183
I0
sS'009_S_4612'
p184
I0
sS'941_S_5124'
p185
I0
sS'130_S_0969'
p186
I0
sS'033_S_4177'
p187
I0
sS'136_S_4433'
p188
I0
sS'099_S_1144'
p189
I1
sS'037_S_4028'
p190
I0
sS'021_S_4924'
p191
I1
sS'067_S_0076'
p192
I1
sS'141_S_1094'
p193
I0
sS'941_S_4255'
p194
I0
sS'010_S_0829'
p195
I1
sS'073_S_0565'
p196
I1
sS'002_S_0295'
p197
I0
sS'014_S_0356'
p198
I1
sS'137_S_0796'
p199
I1
sS'007_S_1222'
p200
I0
sS'098_S_4050'
p201
I0
sS'137_S_0283'
p202
I0
sS'016_S_0359'
p203
I0
sS'130_S_4343'
p204
I0
sS'014_S_4093'
p205
I0
sS'023_S_0058'
p206
I0
sS'024_S_4158'
p207
I0
sS'127_S_5266'
p208
I0
sS'126_S_0784'
p209
I1
sS'137_S_4482'
p210
I0
sS'041_S_1002'
p211
I0
sS'035_S_4464'
p212
I0
sS'094_S_1402'
p213
I1
sS'127_S_5067'
p214
I1
sS'131_S_5148'
p215
I0
sS'133_S_0525'
p216
I0
sS'098_S_4201'
p217
I1
sS'024_S_1171'
p218
I1
sS'062_S_0793'
p219
I1
sS'130_S_6072'
p220
I1
sS'012_S_0720'
p221
I1
sS'127_S_4645'
p222
I0
sS'006_S_4192'
p223
I1
sS'116_S_1083'
p224
I1
sS'057_S_0643'
p225
I0
sS'127_S_0260'
p226
I0
sS'002_S_5018'
p227
I1
sS'073_S_5167'
p228
I0
sS'082_S_0363'
p229
I0
sS'068_S_1191'
p230
I0
sS'116_S_4483'
p231
I0
sS'005_S_0553'
p232
I0
sS'094_S_1164'
p233
I1
sS'002_S_1261'
p234
I0
sS'070_S_5040'
p235
I0
sS'137_S_4587'
p236
I0
sS'057_S_1371'
p237
I1
sS'073_S_0386'
p238
I0
sS'128_S_0245'
p239
I0
sS'018_S_0286'
p240
I1
sS'135_S_4598'
p241
I0
sS'114_S_6039'
p242
I1
sS'006_S_4485'
p243
I0
sS'003_S_4350'
p244
I0
sS'141_S_0696'
p245
I1
sS'029_S_4384'
p246
I0
sS'099_S_4994'
p247
I1
sS'128_S_1430'
p248
I1
sS'057_S_5199'
p249
I0
sS'100_S_0047'
p250
I0
sS'011_S_4105'
p251
I0
sS'051_S_5005'
p252
I1
sS'020_S_0097'
p253
I0
sS'137_S_4632'
p254
I0
sS'031_S_0554'
p255
I1
sS'053_S_1044'
p256
I1
sS'073_S_5090'
p257
I1
sS'014_S_0519'
p258
I0
sS'007_S_4911'
p259
I1
sS'099_S_0352'
p260
I0
sS'128_S_4774'
p261
I1
sS'032_S_4429'
p262
I0
sS'128_S_4772'
p263
I1
sS'013_S_5137'
p264
I0
sS'033_S_0724'
p265
I1
sS'128_S_1242'
p266
I0
sS'126_S_0606'
p267
I1
sS'009_S_1334'
p268
I1
sS'021_S_5177'
p269
I0
sS'029_S_1184'
p270
I1
sS'006_S_0547'
p271
I1
sS'027_S_1385'
p272
I1
sS'127_S_0684'
p273
I0
sS'007_S_0316'
p274
I1
sS'021_S_5236'
p275
I0
sS'068_S_4174'
p276
I0
sS'116_S_1232'
p277
I0
sS'011_S_0005'
p278
I0
sS'099_S_0534'
p279
I0
sS'135_S_5269'
p280
I0
sS'012_S_0803'
p281
I1
sS'098_S_4215'
p282
I1
sS'011_S_0003'
p283
I1
sS'067_S_1185'
p284
I1
sS'022_S_0014'
p285
I0
sS'136_S_0300'
p286
I1
sS'010_S_0472'
p287
I0
sS'002_S_6066'
p288
I0
sS'016_S_4688'
p289
I0
sS'123_S_4362'
p290
I0
sS'013_S_1035'
p291
I0
sS'021_S_0159'
p292
I0
sS'114_S_0228'
p293
I1
sS'010_S_4442'
p294
I0
sS'003_S_4555'
p295
I0
sS'068_S_0473'
p296
I0
sS'027_S_5277'
p297
I0
sS'023_S_0093'
p298
I1
sS'053_S_5287'
p299
I0
sS'127_S_4198'
p300
I0
sS'116_S_0360'
p301
I0
sS'100_S_0190'
p302
I1
sS'129_S_4369'
p303
I0
sS'016_S_4353'
p304
I1
sS'022_S_0129'
p305
I1
sS'100_S_5280'
p306
I0
sS'031_S_1209'
p307
I1
sS'006_S_4357'
p308
I0
sS'126_S_0506'
p309
I0
sS'094_S_4503'
p310
I0
sS'141_S_6061'
p311
I0
sS'127_S_5185'
p312
I0
sS'006_S_0498'
p313
I0
sS'100_S_1062'
p314
I1
sS'029_S_0866'
p315
I0
sS'006_S_4867'
p316
I1
sS'021_S_4558'
p317
I0
sS'131_S_0457'
p318
I1
sS'082_S_4339'
p319
I0
sS'041_S_4014'
p320
I0
sS'130_S_4971'
p321
I1
sS'027_S_4962'
p322
I1
sS'135_S_4676'
p323
I1
sS'003_S_5150'
p324
I0
sS'041_S_1391'
p325
I1
sS'003_S_5154'
p326
I0
sS'022_S_0543'
p327
I1
sS'052_S_5062'
p328
I1
sS'130_S_4997'
p329
I1
sS'036_S_5283'
p330
I0
sS'100_S_0743'
p331
I1
sS'033_S_0516'
p332
I0
sS'100_S_0747'
p333
I1
sS'020_S_5203'
p334
I0
sS'068_S_4968'
p335
I1
sS'098_S_4095'
p336
I1
sS'032_S_4755'
p337
I1
sS'135_S_4657'
p338
I1
sS'021_S_4254'
p339
I0
sS'022_S_6013'
p340
I1
sS'005_S_0929'
p341
I1
sS'011_S_0183'
p342
I1
sS'019_S_4549'
p343
I1
sS'116_S_4625'
p344
I1
sS'027_S_5093'
p345
I0
sS'016_S_4887'
p346
I1
sS'014_S_4576'
p347
I0
sS'041_S_4060'
p348
I0
sS'027_S_5197'
p349
I0
sS'141_S_1152'
p350
I1
sS'020_S_5140'
p351
I0
sS'021_S_4421'
p352
I0
sS'057_S_0818'
p353
I0
sS'128_S_0310'
p354
I1
sS'012_S_0689'
p355
I1
sS'941_S_6080'
p356
I0
sS'135_S_5015'
p357
I1
sS'011_S_4075'
p358
I0
sS'126_S_0405'
p359
I0
sS'094_S_0489'
p360
I0
sS'032_S_0147'
p361
I1
sS'033_S_5087'
p362
I1
sS'005_S_0814'
p363
I1
sS'067_S_5205'
p364
I1
sS'002_S_0938'
p365
I1
sS'098_S_0884'
p366
I1
sS'067_S_1253'
p367
I1
sS'023_S_1262'
p368
I1
sS'018_S_0425'
p369
I0
sS'014_S_4401'
p370
I0
sS'082_S_5184'
p371
I1
sS'067_S_0812'
p372
I1
sS'027_S_5127'
p373
I0
sS'131_S_0691'
p374
I1
sS'136_S_0186'
p375
I0
sS'123_S_0088'
p376
I1
sS'109_S_1192'
p377
I1
sS'029_S_5219'
p378
I0
sS'016_S_5057'
p379
I1
sS'023_S_0963'
p380
I0
sS'012_S_5195'
p381
I0
sS'129_S_4396'
p382
I0
sS'002_S_1280'
p383
I0
sS'128_S_4609'
p384
I0
sS'016_S_4097'
p385
I0
sS'023_S_4164'
p386
I0
sS'127_S_5132'
p387
I0
sS'123_S_4526'
p388
I1
sS'135_S_4863'
p389
I1
sS'052_S_4959'
p390
I1
sS'022_S_0007'
p391
I1
sS'068_S_4340'
p392
I0
sS'031_S_4021'
p393
I0
sS'033_S_4505'
p394
I0
sS'082_S_4208'
p395
I0
sS'031_S_4024'
p396
I1
sS'007_S_4620'
p397
I0
sS'130_S_4990'
p398
I1
sS'082_S_1377'
p399
I1
sS'033_S_4508'
p400
I0
sS'036_S_4894'
p401
I1
sS'094_S_4234'
p402
I0
sS'941_S_4365'
p403
I0
sS'012_S_1212'
p404
I0
sS'136_S_0299'
p405
I1
sS'003_S_1257'
p406
I1
sS'037_S_6032'
p407
I0
sS'130_S_5059'
p408
I1
sS'037_S_6031'
p409
I0
sS'018_S_0043'
p410
I0
sS'018_S_4400'
p411
I0
sS'153_S_4125'
p412
I0
sS'135_S_6104'
p413
I0
sS'116_S_0382'
p414
I0
sS'133_S_0493'
p415
I0
sS'941_S_1197'
p416
I0
sS'018_S_4733'
p417
I1
sS'023_S_4501'
p418
I1
sS'002_S_5256'
p419
I0
sS'036_S_0672'
p420
I0
sS'067_S_0177'
p421
I0
sS'024_S_4084'
p422
I0
sS'130_S_1201'
p423
I1
sS'057_S_1373'
p424
I1
sS'020_S_0213'
p425
I1
sS'003_S_4900'
p426
I0
sS'057_S_1379'
p427
I1
sS'009_S_5125'
p428
I0
sS'100_S_1154'
p429
I1
sS'003_S_5187'
p430
I1
sS'062_S_0768'
p431
I0
sS'010_S_0067'
p432
I0
sS'029_S_0836'
p433
I1
sS'094_S_4282'
p434
I1
sS'033_S_1281'
p435
I1
sS'116_S_0657'
p436
I0
sS'082_S_4090'
p437
I0
sS'027_S_0120'
p438
I0
sS'123_S_0091'
p439
I1
sS'002_S_0685'
p440
I0
sS'094_S_0711'
p441
I0
sS'018_S_4313'
p442
I0
sS'073_S_4155'
p443
I0
sS'073_S_5016'
p444
I1
sS'016_S_1263'
p445
I1
sS'012_S_4643'
p446
I0
sS'037_S_4308'
p447
I0
sS'027_S_4938'
p448
I1
sS'128_S_0528'
p449
I1
sS'019_S_4252'
p450
I1
sS'022_S_0219'
p451
I1
sS'022_S_4266'
p452
I0
sS'016_S_0991'
p453
I1
sS'003_S_5209'
p454
I0
sS'130_S_4589'
p455
I1
sS'003_S_5165'
p456
I1
sS'033_S_1016'
p457
I0
sS'073_S_4382'
p458
I0
sS'023_S_4020'
p459
I0
sS'023_S_0031'
p460
I0
sS'127_S_5200'
p461
I0
sS'127_S_1382'
p462
I1
sS'018_S_0682'
p463
I1
sS'109_S_0777'
p464
I1
sS'009_S_5224'
p465
I1
sS'037_S_0627'
p466
I1
sS'012_S_1133'
p467
I0
sS'002_S_0619'
p468
I1
sS'023_S_5120'
p469
I1
sS'037_S_0303'
p470
I0
sS'003_S_4081'
p471
I0
sS'128_S_4792'
p472
I1
sS'067_S_5159'
p473
I0
sS'037_S_4410'
p474
I0
sS'131_S_0319'
p475
I0
sS'012_S_4545'
p476
I0
sS'024_S_5054'
p477
I1
sS'073_S_4795'
p478
I0
sS'130_S_6043'
p479
I0
sS'070_S_4692'
p480
I1
sS'024_S_1307'
p481
I1
sS'082_S_5029'
p482
I1
sS'141_S_1024'
p483
I1
sS'130_S_4660'
p484
I1
sS'073_S_4552'
p485
I0
sS'099_S_6016'
p486
I0
sS'024_S_4905'
p487
I1
sS'027_S_5169'
p488
I0
sS'029_S_4307'
p489
I1
sS'027_S_4801'
p490
I1
sS'027_S_4802'
p491
I1
sS'033_S_0733'
p492
I1
sS'023_S_0926'
p493
I0
sS'007_S_0070'
p494
I0
sS'012_S_0712'
p495
I1
sS'094_S_2201'
p496
I0
sS'003_S_4644'
p497
I0
sS'002_S_5230'
p498
I0
sS'130_S_5142'
p499
I0
sS'051_S_5294'
p500
I0
sS'029_S_1056'
p501
I1
sS'116_S_4195'
p502
I1
sS'068_S_4859'
p503
I1
sS'007_S_4516'
p504
I0
sS'018_S_4696'
p505
I1
sS'168_S_6051'
p506
I0
sS'002_S_6053'
p507
I0
sS'053_S_5272'
p508
I0
sS'136_S_4269'
p509
I0
sS'133_S_1170'
p510
I1
sS'053_S_5070'
p511
I1
sS'141_S_0726'
p512
I0
sS'067_S_0828'
p513
I1
sS'002_S_1018'
p514
I1
sS'016_S_4591'
p515
I1
sS'041_S_5253'
p516
I0
sS'021_S_4718'
p517
I1
sS'022_S_0130'
p518
I0
sS'003_S_0981'
p519
I0
sS'053_S_5296'
p520
I0
sS'013_S_4616'
p521
I0
sS'941_S_6058'
p522
I0
sS'006_S_4449'
p523
I0
sS'035_S_4082'
p524
I0
sS'129_S_4371'
p525
I0
sS'094_S_4089'
p526
I1
sS'099_S_4086'
p527
I0
sS'002_S_4225'
p528
I0
sS'941_S_6054'
p529
I0
sS'127_S_5056'
p530
I1
sS'006_S_0484'
p531
I0
sS'013_S_4580'
p532
I0
sS'010_S_0786'
p533
I1
sS'032_S_4921'
p534
I0
sS'094_S_1027'
p535
I1
sS'141_S_6015'
p536
I0
sS'037_S_4001'
p537
I1
sS'116_S_0370'
p538
I1
sS'100_S_1113'
p539
I1
sS'053_S_5202'
p540
I0
sS'941_S_4376'
p541
I0
sS'153_S_4172'
p542
I1
sS'010_S_0419'
p543
I0
sS'005_S_0610'
p544
I0
sS'053_S_5208'
p545
I1
sS'073_S_4559'
p546
I0
sS'072_S_0315'
p547
I0
sS'136_S_0196'
p548
I0
sS'005_S_5038'
p549
I1
sS'127_S_5028'
p550
I1
sS'005_S_0221'
p551
I1
sS'109_S_0967'
p552
I0
sS'082_S_4224'
p553
I0
sS'031_S_0618'
p554
I0
sS'006_S_0731'
p555
I0
sS'041_S_4427'
p556
I0
sS'100_S_5102'
p557
I0
sS'002_S_0559'
p558
I0
sS'031_S_0321'
p559
I1
sS'123_S_0113'
p560
I0
sS'099_S_0090'
p561
I0
sS'023_S_0078'
p562
I1
sS'062_S_0535'
p563
I1
sS'941_S_6044'
p564
I0
sS'153_S_4151'
p565
I0
sS'032_S_0677'
p566
I0
sS'024_S_4280'
p567
I1
sS'011_S_4949'
p568
I1
sS'027_S_0118'
p569
I0
sS'011_S_0053'
p570
I1
sS'033_S_0734'
p571
I0
sS'036_S_4389'
p572
I0
sS'032_S_1101'
p573
I1
sS'067_S_6045'
p574
I0
sS'130_S_1337'
p575
I1
sS'041_S_5078'
p576
I0
sS'141_S_0810'
p577
I0
sS'019_S_4367'
p578
I0
sS'130_S_4730'
p579
I1
sS'127_S_4148'
p580
I0
sS'037_S_4879'
p581
I1
sS'020_S_1288'
p582
I0
sS'027_S_5288'
p583
I0
sS'128_S_4832'
p584
I0
sS'130_S_6035'
p585
I0
sS'027_S_4964'
p586
I1
sS'094_S_0692'
p587
I0
sS'127_S_0844'
p588
I1
sS'033_S_1086'
p589
I0
sS'062_S_1099'
p590
I0
sS'137_S_0438'
p591
I1
sS'021_S_1109'
p592
I1
sS'006_S_4546'
p593
I1
sS'128_S_0863'
p594
I0
sS'128_S_5123'
p595
I1
sS'032_S_1037'
p596
I1
sS'013_S_0502'
p597
I0
sS'130_S_4352'
p598
I0
sS'099_S_0492'
p599
I1
sS'036_S_1023'
p600
I0
sS'094_S_4560'
p601
I0
sS'033_S_1285'
p602
I1
sS'041_S_4200'
p603
I0
sS'100_S_4469'
p604
I0
sS'003_S_4119'
p605
I0
sS'011_S_4120'
p606
I0
sS'033_S_1283'
p607
I1
sS'116_S_4338'
p608
I1
sS'073_S_4762'
p609
I0
sS'016_S_5251'
p610
I1
sS'127_S_4992'
p611
I1
sS'130_S_6037'
p612
I0
sS'029_S_4279'
p613
I0
sS'007_S_1304'
p614
I1
sS'019_S_5242'
p615
I0
sS'128_S_4599'
p616
I0
sS'007_S_4387'
p617
I0
sS'136_S_0194'
p618
I1
sS'013_S_0575'
p619
I0
sS'068_S_4424'
p620
I0
sS'137_S_4258'
p621
I1
sS'023_S_0916'
p622
I1
sS'018_S_0369'
p623
I0
sS'006_S_0681'
p624
I0
sS'005_S_4910'
p625
I1
sS'114_S_0374'
p626
I1
sS'002_S_6009'
p627
I0
sS'007_S_4637'
p628
I0
sS'033_S_5235'
p629
I0
sS'082_S_0761'
p630
I0
sS'013_S_0592'
p631
I1
sS'012_S_5157'
p632
I0
sS'019_S_5012'
p633
I1
sS'018_S_4257'
p634
I0
sS'019_S_5019'
p635
I1
sS'153_S_4139'
p636
I0
sS'137_S_0841'
p637
I1
sS'002_S_6007'
p638
I0
sS'128_S_0500'
p639
I0
sS'031_S_4496'
p640
I0
sS'013_S_0699'
p641
I1
sS'051_S_1296'
p642
I1
sS'021_S_4276'
p643
I0
sS'137_S_1041'
p644
I1
sS'128_S_0216'
p645
I1
sS'022_S_4173'
p646
I0
sS'127_S_0431'
p647
I1
sS'127_S_5095'
p648
I1
sS'073_S_0311'
p649
I0
sS'023_S_0139'
p650
I1
sS'036_S_0760'
p651
I1
sS'005_S_1341'
p652
I1
sS'136_S_0086'
p653
I0
sS'007_S_5265'
p654
I0
sS'141_S_0852'
p655
I1
sS'052_S_1250'
p656
I0
sS'052_S_1251'
p657
I0
sS'003_S_4872'
p658
I0
sS'011_S_4906'
p659
I1
sS'037_S_0327'
p660
I0
sS'035_S_0341'
p661
I1
sS'009_S_5037'
p662
I1
sS'029_S_0845'
p663
I0
sS'137_S_4211'
p664
I1
sS'137_S_0686'
p665
I0
sS'127_S_4843'
p666
I0
sS'133_S_0488'
p667
I0
sS'073_S_5023'
p668
I0
sS'114_S_4379'
p669
I1
sS'027_S_5083'
p670
I0
sS'016_S_5032'
p671
I1
sS'041_S_4037'
p672
I0
sS'003_S_4892'
p673
I1
sS'116_S_0648'
p674
I0
sS'041_S_5131'
p675
I0
sS'130_S_5258'
p676
I0
sS'094_S_1267'
p677
I0
sS'003_S_1021'
p678
I0
sS'024_S_4223'
p679
I1
sS'128_S_0517'
p680
I1
sS'109_S_4499'
p681
I0
sS'127_S_5218'
p682
I0
sS'062_S_0690'
p683
I1
sS'073_S_4393'
p684
I0
sS'070_S_4856'
p685
I0
sS'029_S_5158'
p686
I0
sS'003_S_4373'
p687
I1
sS'009_S_5252'
p688
I1
sS'131_S_1301'
p689
I0
sS'037_S_4770'
p690
I1
sS'018_S_4399'
p691
I0
sS'007_S_1206'
p692
I0
sS'136_S_0426'
p693
I1
sS'109_S_1157'
p694
I1
sS'003_S_4152'
p695
I1
sS'032_S_0095'
p696
I0
sS'941_S_6094'
p697
I0
sS'099_S_0470'
p698
I1
sS'131_S_0497'
p699
I1
sS'022_S_4320'
p700
I0
sS'041_S_5141'
p701
I0
sS'067_S_0019'
p702
I0
sS'027_S_5170'
p703
I0
sS'099_S_0372'
p704
I1
sS'941_S_1195'
p705
I0
sS'072_S_4103'
p706
I0
sS'100_S_0995'
p707
I1
sS'003_S_1059'
p708
I1
sS'007_S_5196'
p709
I1
sS'027_S_5079'
p710
I0
sS'037_S_5222'
p711
I0
sS'073_S_0089'
p712
I0
sS'036_S_5210'
p713
I1
sS'137_S_0366'
p714
I1
sS'052_S_0951'
p715
I0
sS'130_S_5175'
p716
I0
sS'029_S_4290'
p717
I0
sS'051_S_4980'
p718
I1
sS'137_S_4520'
p719
I0
sS'137_S_4466'
p720
I0
sS'027_S_6001'
p721
I0
sS'011_S_0023'
p722
I0
sS'011_S_0021'
p723
I0
sS'116_S_4732'
p724
I1
sS'116_S_4043'
p725
I0
sS'011_S_4278'
p726
I0
sS'082_S_0640'
p727
I0
sS'027_S_5109'
p728
I0
sS'073_S_4739'
p729
I0
sS'041_S_0262'
p730
I0
sS'018_S_5250'
p731
I0
sS'019_S_4835'
p732
I0
sS'073_S_0312'
p733
I0
sS'133_S_0433'
p734
I0
sS'027_S_1254'
p735
I1
sS'002_S_0413'
p736
I0
sS'018_S_5262'
p737
I0
sS'016_S_4583'
p738
I1
sS'029_S_0999'
p739
I1
sS'033_S_0923'
p740
I0
sS'135_S_4954'
p741
I1
sS'021_S_5129'
p742
I0
sS'027_S_0074'
p743
I0
sS'021_S_0343'
p744
I1
sS'068_S_5146'
p745
I1
sS'136_S_0184'
p746
I0
sS'007_S_4488'
p747
I0
sS'114_S_0979'
p748
I1
sS'013_S_1276'
p749
I0
sS'130_S_0956'
p750
I1
sS'023_S_5241'
p751
I1
sS'033_S_0889'
p752
I1
sS'007_S_4568'
p753
I1
sS'002_S_4213'
p754
I0
sS'009_S_5176'
p755
I0
sS'141_S_6008'
p756
I0
sS'098_S_0149'
p757
I1
sS'062_S_0730'
p758
I1
sS'003_S_0907'
p759
I0
sS'073_S_4853'
p760
I1
sS'002_S_6030'
p761
I0
sS'014_S_1095'
p762
I1
sS'094_S_4649'
p763
I0
sS'082_S_4428'
p764
I0
sS'023_S_4448'
p765
I0
sS'003_S_4441'
p766
I0
sS'012_S_4026'
p767
I0
sS'141_S_0767'
p768
I0
sS'094_S_1102'
p769
I1
sS'014_S_0328'
p770
I1
sS'018_S_4349'
p771
I0
sS'036_S_0759'
p772
I1
sS'109_S_0876'
p773
I0
sS'003_S_5130'
p774
I0
sS'014_S_4080'
p775
I0
sS'099_S_6025'
p776
I0
sS'032_S_5289'
p777
I0
sS'002_S_5178'
p778
I0
sS'033_S_5013'
p779
I1
sS'033_S_5017'
p780
I1
sS'006_S_5153'
p781
I0
sS'036_S_5063'
p782
I1
sS'022_S_0096'
p783
I0
sS'131_S_5138'
p784
I1
sS'024_S_6005'
p785
I0
sS'153_S_5267'
p786
I0
sS'041_S_5082'
p787
I0
sS'153_S_5261'
p788
I0
sS'010_S_4345'
p789
I0
sS'094_S_0526'
p790
I0
sS'021_S_4335'
p791
I0
sS'013_S_1161'
p792
I1
sS'007_S_1248'
p793
I1
s.